target datalayout = "e-m:e-p270:32:32-p271:32:32-p272:64:64-i64:64-i128:128-f80:128-n8:16:32:64-S128"
target triple = "x86_64-pc-linux-gnu"

%struct.PaUtilBufferProcessor = type { i64, i64, i32, i32, i32, i32, i64, i32, i32, i32, i32, ptr, ptr, i32, i32, i32, i32, ptr, ptr, i64, i64, ptr, ptr, i64, ptr, ptr, i64, ptr, i64, i32, [2 x i64], [2 x ptr], i32, [2 x i64], [2 x ptr], %struct.PaUtilTriangularDitherGenerator, double, ptr, ptr }
%struct.PaUtilTriangularDitherGenerator = type { i32, i32, i32 }
%struct.PaUtilChannelDescriptor = type { ptr, i32 }

; Function Attrs: nounwind uwtable
define void @PaUtil_Set2ndOutputChannel(ptr noundef %0, i32 noundef %1, ptr noundef %2, i32 noundef %3) #0 {
  %5 = alloca ptr, align 8
  %6 = alloca i32, align 4
  %7 = alloca ptr, align 8
  %8 = alloca i32, align 4
  store ptr %0, ptr %5, align 8
  store i32 %1, ptr %6, align 4
  store ptr %2, ptr %7, align 8
  store i32 %3, ptr %8, align 4
  %9 = load ptr, ptr %7, align 8
  %10 = load ptr, ptr %5, align 8
  %11 = getelementptr inbounds nuw %struct.PaUtilBufferProcessor, ptr %10, i32 0, i32 34
  %12 = getelementptr inbounds [2 x ptr], ptr %11, i64 0, i64 1
  %13 = load ptr, ptr %12, align 8
  %14 = load i32, ptr %6, align 4
  %15 = zext i32 %14 to i64
  %16 = getelementptr inbounds %struct.PaUtilChannelDescriptor, ptr %13, i64 %15
  %17 = getelementptr inbounds nuw %struct.PaUtilChannelDescriptor, ptr %16, i32 0, i32 0
  store ptr %9, ptr %17, align 8
  %18 = load i32, ptr %8, align 4
  %19 = load ptr, ptr %5, align 8
  %20 = getelementptr inbounds nuw %struct.PaUtilBufferProcessor, ptr %19, i32 0, i32 34
  %21 = getelementptr inbounds [2 x ptr], ptr %20, i64 0, i64 1
  %22 = load ptr, ptr %21, align 8
  %23 = load i32, ptr %6, align 4
  %24 = zext i32 %23 to i64
  %25 = getelementptr inbounds %struct.PaUtilChannelDescriptor, ptr %22, i64 %24
  %26 = getelementptr inbounds nuw %struct.PaUtilChannelDescriptor, ptr %25, i32 0, i32 1
  store i32 %18, ptr %26, align 8
  ret void
}

; Function Attrs: nounwind uwtable
define void @PaUtil_Set2ndNonInterleavedOutputChannel(ptr noundef %0, i32 noundef %1, ptr noundef %2) #0 {
  %4 = alloca ptr, align 8
  %5 = alloca i32, align 4
  %6 = alloca ptr, align 8
  store ptr %0, ptr %4, align 8
  store i32 %1, ptr %5, align 4
  store ptr %2, ptr %6, align 8
  %7 = load ptr, ptr %4, align 8
  %8 = load i32, ptr %5, align 4
  %9 = load ptr, ptr %6, align 8
  call void @PaUtil_Set2ndOutputChannel(ptr noundef %7, i32 noundef %8, ptr noundef %9, i32 noundef 1)
  ret void
}