; Function Attrs: mustprogress nofree norecurse nosync nounwind willreturn memory(write, argmem: readwrite, inaccessiblemem: none) uwtable
define void @PaUtil_Set2ndNonInterleavedOutputChannel(ptr nocapture noundef readonly %0, i32 noundef %1, ptr noundef %2) local_unnamed_addr #2 {
  %4 = getelementptr inbounds i8, ptr %0, i64 256
  %5 = load ptr, ptr %4, align 8
  %6 = zext i32 %1 to i64
  %7 = getelementptr inbounds %struct.PaUtilChannelDescriptor, ptr %5, i64 %6
  store ptr %2, ptr %7, align 8
  %8 = load ptr, ptr %4, align 8
  %9 = getelementptr inbounds %struct.PaUtilChannelDescriptor, ptr %8, i64 %6, i32 1
  store i32 1, ptr %9, align 8
  ret void
}